target datalayout = "e-m:e-p270:32:32-p271:32:32-p272:64:64-i64:64-i128:128-f80:128-n8:16:32:64-S128"
target triple = "x86_64-pc-linux-gnu"

%struct.anon = type { [10 x [10 x ptr]], [10 x [10 x ptr]], [10 x [10 x ptr]], double, double, double, double, double, double, double }

; Function Attrs: nounwind uwtable
define internal i32 @Precond(double noundef %0, ptr noundef %1, ptr noundef %2, i32 noundef %3, ptr noundef %4, double noundef %5, ptr noundef %6) #0 {
  %8 = alloca i32, align 4
  %9 = alloca double, align 8
  %10 = alloca ptr, align 8
  %11 = alloca ptr, align 8
  %12 = alloca i32, align 4
  %13 = alloca ptr, align 8
  %14 = alloca double, align 8
  %15 = alloca ptr, align 8
  %16 = alloca double, align 8
  %17 = alloca double, align 8
  %18 = alloca double, align 8
  %19 = alloca double, align 8
  %20 = alloca double, align 8
  %21 = alloca double, align 8
  %22 = alloca double, align 8
  %23 = alloca double, align 8
  %24 = alloca double, align 8
  %25 = alloca double, align 8
  %26 = alloca double, align 8
  %27 = alloca ptr, align 8
  %28 = alloca ptr, align 8
  %29 = alloca ptr, align 8
  %30 = alloca i64, align 8
  %31 = alloca i32, align 4
  %32 = alloca i32, align 4
  %33 = alloca ptr, align 8
  %34 = alloca ptr, align 8
  %35 = alloca ptr, align 8
  %36 = alloca ptr, align 8
  %37 = alloca i32, align 4
  store double %0, ptr %9, align 8, !tbaa !20
  store ptr %1, ptr %10, align 8, !tbaa !4
  store ptr %2, ptr %11, align 8, !tbaa !4
  store i32 %3, ptr %12, align 4, !tbaa !12
  store ptr %4, ptr %13, align 8, !tbaa !25
  store double %5, ptr %14, align 8, !tbaa !20
  store ptr %6, ptr %15, align 8, !tbaa !9
  call void @llvm.lifetime.start.p0(i64 8, ptr %16) #6
  call void @llvm.lifetime.start.p0(i64 8, ptr %17) #6
  call void @llvm.lifetime.start.p0(i64 8, ptr %18) #6
  call void @llvm.lifetime.start.p0(i64 8, ptr %19) #6
  call void @llvm.lifetime.start.p0(i64 8, ptr %20) #6
  call void @llvm.lifetime.start.p0(i64 8, ptr %21) #6
  call void @llvm.lifetime.start.p0(i64 8, ptr %22) #6
  call void @llvm.lifetime.start.p0(i64 8, ptr %23) #6
  call void @llvm.lifetime.start.p0(i64 8, ptr %24) #6
  call void @llvm.lifetime.start.p0(i64 8, ptr %25) #6
  call void @llvm.lifetime.start.p0(i64 8, ptr %26) #6
  call void @llvm.lifetime.start.p0(i64 8, ptr %27) #6
  call void @llvm.lifetime.start.p0(i64 8, ptr %28) #6
  call void @llvm.lifetime.start.p0(i64 8, ptr %29) #6
  call void @llvm.lifetime.start.p0(i64 8, ptr %30) #6
  call void @llvm.lifetime.start.p0(i64 4, ptr %31) #6
  call void @llvm.lifetime.start.p0(i64 4, ptr %32) #6
  call void @llvm.lifetime.start.p0(i64 8, ptr %33) #6
  call void @llvm.lifetime.start.p0(i64 8, ptr %34) #6
  call void @llvm.lifetime.start.p0(i64 8, ptr %35) #6
  call void @llvm.lifetime.start.p0(i64 8, ptr %36) #6
  %38 = load ptr, ptr %15, align 8, !tbaa !9
  store ptr %38, ptr %36, align 8, !tbaa !9
  %39 = load ptr, ptr %36, align 8, !tbaa !9
  %40 = getelementptr inbounds nuw %struct.anon, ptr %39, i32 0, i32 0
  %41 = getelementptr inbounds [10 x [10 x ptr]], ptr %40, i64 0, i64 0
  store ptr %41, ptr %27, align 8, !tbaa !38
  %42 = load ptr, ptr %36, align 8, !tbaa !9
  %43 = getelementptr inbounds nuw %struct.anon, ptr %42, i32 0, i32 1
  %44 = getelementptr inbounds [10 x [10 x ptr]], ptr %43, i64 0, i64 0
  store ptr %44, ptr %28, align 8, !tbaa !38
  %45 = load ptr, ptr %36, align 8, !tbaa !9
  %46 = getelementptr inbounds nuw %struct.anon, ptr %45, i32 0, i32 2
  %47 = getelementptr inbounds [10 x [10 x ptr]], ptr %46, i64 0, i64 0
  store ptr %47, ptr %29, align 8, !tbaa !40
  %48 = load ptr, ptr %10, align 8, !tbaa !4
  %49 = call ptr @N_VGetArrayPointer(ptr noundef %48)
  store ptr %49, ptr %33, align 8, !tbaa !35
  %50 = load i32, ptr %12, align 4, !tbaa !12
  %51 = icmp ne i32 %50, 0
  br i1 %51, label %52, label %86

52:                                               ; preds = %7
  store i32 0, ptr %32, align 4, !tbaa !12
  br label %53

53:                                               ; preds = %81, %52
  %54 = load i32, ptr %32, align 4, !tbaa !12
  %55 = icmp slt i32 %54, 10
  br i1 %55, label %56, label %84

56:                                               ; preds = %53
  store i32 0, ptr %31, align 4, !tbaa !12
  br label %57

57:                                               ; preds = %77, %56
  %58 = load i32, ptr %31, align 4, !tbaa !12
  %59 = icmp slt i32 %58, 10
  br i1 %59, label %60, label %80

60:                                               ; preds = %57
  %61 = load ptr, ptr %28, align 8, !tbaa !38
  %62 = load i32, ptr %31, align 4, !tbaa !12
  %63 = sext i32 %62 to i64
  %64 = getelementptr inbounds [10 x ptr], ptr %61, i64 %63
  %65 = load i32, ptr %32, align 4, !tbaa !12
  %66 = sext i32 %65 to i64
  %67 = getelementptr inbounds [10 x ptr], ptr %64, i64 0, i64 %66
  %68 = load ptr, ptr %67, align 8, !tbaa !27
  %69 = load ptr, ptr %27, align 8, !tbaa !38
  %70 = load i32, ptr %31, align 4, !tbaa !12
  %71 = sext i32 %70 to i64
  %72 = getelementptr inbounds [10 x ptr], ptr %69, i64 %71
  %73 = load i32, ptr %32, align 4, !tbaa !12
  %74 = sext i32 %73 to i64
  %75 = getelementptr inbounds [10 x ptr], ptr %72, i64 0, i64 %74
  %76 = load ptr, ptr %75, align 8, !tbaa !27
  call void @SUNDlsMat_denseCopy(ptr noundef %68, ptr noundef %76, i64 noundef 2, i64 noundef 2)
  br label %77

77:                                               ; preds = %60
  %78 = load i32, ptr %31, align 4, !tbaa !12
  %79 = add nsw i32 %78, 1
  store i32 %79, ptr %31, align 4, !tbaa !12
  br label %57

80:                                               ; preds = %57
  br label %81

81:                                               ; preds = %80
  %82 = load i32, ptr %32, align 4, !tbaa !12
  %83 = add nsw i32 %82, 1
  store i32 %83, ptr %32, align 4, !tbaa !12
  br label %53

84:                                               ; preds = %53
  %85 = load ptr, ptr %13, align 8, !tbaa !25
  store i32 0, ptr %85, align 4, !tbaa !12
  br label %209

86:                                               ; preds = %7
  %87 = load ptr, ptr %36, align 8, !tbaa !9
  %88 = getelementptr inbounds nuw %struct.anon, ptr %87, i32 0, i32 3
  %89 = load double, ptr %88, align 8, !tbaa !37
  store double %89, ptr %23, align 8, !tbaa !20
  %90 = load ptr, ptr %36, align 8, !tbaa !9
  %91 = getelementptr inbounds nuw %struct.anon, ptr %90, i32 0, i32 6
  %92 = load double, ptr %91, align 8, !tbaa !19
  store double %92, ptr %24, align 8, !tbaa !20
  %93 = load ptr, ptr %36, align 8, !tbaa !9
  %94 = getelementptr inbounds nuw %struct.anon, ptr %93, i32 0, i32 9
  %95 = load double, ptr %94, align 8, !tbaa !34
  store double %95, ptr %25, align 8, !tbaa !20
  %96 = load ptr, ptr %36, align 8, !tbaa !9
  %97 = getelementptr inbounds nuw %struct.anon, ptr %96, i32 0, i32 7
  %98 = load double, ptr %97, align 8, !tbaa !32
  store double %98, ptr %26, align 8, !tbaa !20
  store i32 0, ptr %32, align 4, !tbaa !12
  br label %99

99:                                               ; preds = %204, %86
  %100 = load i32, ptr %32, align 4, !tbaa !12
  %101 = icmp slt i32 %100, 10
  br i1 %101, label %102, label %207

102:                                              ; preds = %99
  %103 = load i32, ptr %32, align 4, !tbaa !12
  %104 = sitofp i32 %103 to double
  %105 = fsub double %104, 5.000000e-01
  %106 = load double, ptr %24, align 8, !tbaa !20
  %107 = call double @llvm.fmuladd.f64(double %105, double %106, double 3.000000e+01)
  store double %107, ptr %21, align 8, !tbaa !20
  %108 = load double, ptr %21, align 8, !tbaa !20
  %109 = load double, ptr %24, align 8, !tbaa !20
  %110 = fadd double %108, %109
  store double %110, ptr %22, align 8, !tbaa !20
  %111 = load double, ptr %25, align 8, !tbaa !20
  %112 = load double, ptr %21, align 8, !tbaa !20
  %113 = fmul double 2.000000e-01, %112
  %114 = call double @exp(double noundef %113) #6, !tbaa !12
  %115 = fmul double %111, %114
  store double %115, ptr %18, align 8, !tbaa !20
  %116 = load double, ptr %25, align 8, !tbaa !20
  %117 = load double, ptr %22, align 8, !tbaa !20
  %118 = fmul double 2.000000e-01, %117
  %119 = call double @exp(double noundef %118) #6, !tbaa !12
  %120 = fmul double %116, %119
  store double %120, ptr %19, align 8, !tbaa !20
  %121 = load double, ptr %18, align 8, !tbaa !20
  %122 = load double, ptr %19, align 8, !tbaa !20
  %123 = fadd double %121, %122
  %124 = load double, ptr %26, align 8, !tbaa !20
  %125 = call double @llvm.fmuladd.f64(double 2.000000e+00, double %124, double %123)
  %126 = fneg double %125
  store double %126, ptr %20, align 8, !tbaa !20
  store i32 0, ptr %31, align 4, !tbaa !12
  br label %127

127:                                              ; preds = %200, %102
  %128 = load i32, ptr %31, align 4, !tbaa !12
  %129 = icmp slt i32 %128, 10
  br i1 %129, label %130, label %203

130:                                              ; preds = %127
  %131 = load ptr, ptr %33, align 8, !tbaa !35
  %132 = load i32, ptr %31, align 4, !tbaa !12
  %133 = mul nsw i32 %132, 2
  %134 = add nsw i32 0, %133
  %135 = load i32, ptr %32, align 4, !tbaa !12
  %136 = mul nsw i32 %135, 20
  %137 = add nsw i32 %134, %136
  %138 = sext i32 %137 to i64
  %139 = getelementptr inbounds double, ptr %131, i64 %138
  %140 = load double, ptr %139, align 8, !tbaa !20
  store double %140, ptr %16, align 8, !tbaa !20
  %141 = load ptr, ptr %33, align 8, !tbaa !35
  %142 = load i32, ptr %31, align 4, !tbaa !12
  %143 = mul nsw i32 %142, 2
  %144 = add nsw i32 1, %143
  %145 = load i32, ptr %32, align 4, !tbaa !12
  %146 = mul nsw i32 %145, 20
  %147 = add nsw i32 %144, %146
  %148 = sext i32 %147 to i64
  %149 = getelementptr inbounds double, ptr %141, i64 %148
  %150 = load double, ptr %149, align 8, !tbaa !20
  store double %150, ptr %17, align 8, !tbaa !20
  %151 = load ptr, ptr %28, align 8, !tbaa !38
  %152 = load i32, ptr %31, align 4, !tbaa !12
  %153 = sext i32 %152 to i64
  %154 = getelementptr inbounds [10 x ptr], ptr %151, i64 %153
  %155 = load i32, ptr %32, align 4, !tbaa !12
  %156 = sext i32 %155 to i64
  %157 = getelementptr inbounds [10 x ptr], ptr %154, i64 0, i64 %156
  %158 = load ptr, ptr %157, align 8, !tbaa !27
  store ptr %158, ptr %35, align 8, !tbaa !27
  %159 = load ptr, ptr %27, align 8, !tbaa !38
  %160 = load i32, ptr %31, align 4, !tbaa !12
  %161 = sext i32 %160 to i64
  %162 = getelementptr inbounds [10 x ptr], ptr %159, i64 %161
  %163 = load i32, ptr %32, align 4, !tbaa !12
  %164 = sext i32 %163 to i64
  %165 = getelementptr inbounds [10 x ptr], ptr %162, i64 0, i64 %164
  %166 = load ptr, ptr %165, align 8, !tbaa !27
  store ptr %166, ptr %34, align 8, !tbaa !27
  %167 = load double, ptr %17, align 8, !tbaa !20
  %168 = call double @llvm.fmuladd.f64(double -4.660000e-16, double %167, double 0xC0181FBE76C8B43A)
  %169 = load double, ptr %20, align 8, !tbaa !20
  %170 = fadd double %168, %169
  %171 = load ptr, ptr %35, align 8, !tbaa !27
  %172 = getelementptr inbounds ptr, ptr %171, i64 0
  %173 = load ptr, ptr %172, align 8, !tbaa !35
  %174 = getelementptr inbounds double, ptr %173, i64 0
  store double %170, ptr %174, align 8, !tbaa !20
  %175 = load double, ptr %16, align 8, !tbaa !20
  %176 = load double, ptr %23, align 8, !tbaa !20
  %177 = call double @llvm.fmuladd.f64(double -4.660000e-16, double %175, double %176)
  %178 = load ptr, ptr %35, align 8, !tbaa !27
  %179 = getelementptr inbounds ptr, ptr %178, i64 1
  %180 = load ptr, ptr %179, align 8, !tbaa !35
  %181 = getelementptr inbounds double, ptr %180, i64 0
  store double %177, ptr %181, align 8, !tbaa !20
  %182 = load double, ptr %17, align 8, !tbaa !20
  %183 = call double @llvm.fmuladd.f64(double -4.660000e-16, double %182, double 0x40181FBE76C8B43A)
  %184 = load ptr, ptr %35, align 8, !tbaa !27
  %185 = getelementptr inbounds ptr, ptr %184, i64 0
  %186 = load ptr, ptr %185, align 8, !tbaa !35
  %187 = getelementptr inbounds double, ptr %186, i64 1
  store double %183, ptr %187, align 8, !tbaa !20
  %188 = load double, ptr %16, align 8, !tbaa !20
  %189 = load double, ptr %23, align 8, !tbaa !20
  %190 = fneg double %189
  %191 = call double @llvm.fmuladd.f64(double -4.660000e-16, double %188, double %190)
  %192 = load double, ptr %20, align 8, !tbaa !20
  %193 = fadd double %191, %192
  %194 = load ptr, ptr %35, align 8, !tbaa !27
  %195 = getelementptr inbounds ptr, ptr %194, i64 1
  %196 = load ptr, ptr %195, align 8, !tbaa !35
  %197 = getelementptr inbounds double, ptr %196, i64 1
  store double %193, ptr %197, align 8, !tbaa !20
  %198 = load ptr, ptr %35, align 8, !tbaa !27
  %199 = load ptr, ptr %34, align 8, !tbaa !27
  call void @SUNDlsMat_denseCopy(ptr noundef %198, ptr noundef %199, i64 noundef 2, i64 noundef 2)
  br label %200

200:                                              ; preds = %130
  %201 = load i32, ptr %31, align 4, !tbaa !12
  %202 = add nsw i32 %201, 1
  store i32 %202, ptr %31, align 4, !tbaa !12
  br label %127

203:                                              ; preds = %127
  br label %204

204:                                              ; preds = %203
  %205 = load i32, ptr %32, align 4, !tbaa !12
  %206 = add nsw i32 %205, 1
  store i32 %206, ptr %32, align 4, !tbaa !12
  br label %99

207:                                              ; preds = %99
  %208 = load ptr, ptr %13, align 8, !tbaa !25
  store i32 1, ptr %208, align 4, !tbaa !12
  br label %209

209:                                              ; preds = %207, %84
  store i32 0, ptr %32, align 4, !tbaa !12
  br label %210

210:                                              ; preds = %232, %209
  %211 = load i32, ptr %32, align 4, !tbaa !12
  %212 = icmp slt i32 %211, 10
  br i1 %212, label %213, label %235

213:                                              ; preds = %210
  store i32 0, ptr %31, align 4, !tbaa !12
  br label %214

214:                                              ; preds = %228, %213
  %215 = load i32, ptr %31, align 4, !tbaa !12
  %216 = icmp slt i32 %215, 10
  br i1 %216, label %217, label %231

217:                                              ; preds = %214
  %218 = load double, ptr %14, align 8, !tbaa !20
  %219 = fneg double %218
  %220 = load ptr, ptr %27, align 8, !tbaa !38
  %221 = load i32, ptr %31, align 4, !tbaa !12
  %222 = sext i32 %221 to i64
  %223 = getelementptr inbounds [10 x ptr], ptr %220, i64 %222
  %224 = load i32, ptr %32, align 4, !tbaa !12
  %225 = sext i32 %224 to i64
  %226 = getelementptr inbounds [10 x ptr], ptr %223, i64 0, i64 %225
  %227 = load ptr, ptr %226, align 8, !tbaa !27
  call void @SUNDlsMat_denseScale(double noundef %219, ptr noundef %227, i64 noundef 2, i64 noundef 2)
  br label %228

228:                                              ; preds = %217
  %229 = load i32, ptr %31, align 4, !tbaa !12
  %230 = add nsw i32 %229, 1
  store i32 %230, ptr %31, align 4, !tbaa !12
  br label %214

231:                                              ; preds = %214
  br label %232

232:                                              ; preds = %231
  %233 = load i32, ptr %32, align 4, !tbaa !12
  %234 = add nsw i32 %233, 1
  store i32 %234, ptr %32, align 4, !tbaa !12
  br label %210

235:                                              ; preds = %210
  store i32 0, ptr %31, align 4, !tbaa !12
  br label %236

236:                                              ; preds = %277, %235
  %237 = load i32, ptr %31, align 4, !tbaa !12
  %238 = icmp slt i32 %237, 10
  br i1 %238, label %239, label %280

239:                                              ; preds = %236
  store i32 0, ptr %32, align 4, !tbaa !12
  br label %240

240:                                              ; preds = %273, %239
  %241 = load i32, ptr %32, align 4, !tbaa !12
  %242 = icmp slt i32 %241, 10
  br i1 %242, label %243, label %276

243:                                              ; preds = %240
  %244 = load ptr, ptr %27, align 8, !tbaa !38
  %245 = load i32, ptr %31, align 4, !tbaa !12
  %246 = sext i32 %245 to i64
  %247 = getelementptr inbounds [10 x ptr], ptr %244, i64 %246
  %248 = load i32, ptr %32, align 4, !tbaa !12
  %249 = sext i32 %248 to i64
  %250 = getelementptr inbounds [10 x ptr], ptr %247, i64 0, i64 %249
  %251 = load ptr, ptr %250, align 8, !tbaa !27
  call void @SUNDlsMat_denseAddIdentity(ptr noundef %251, i64 noundef 2)
  %252 = load ptr, ptr %27, align 8, !tbaa !38
  %253 = load i32, ptr %31, align 4, !tbaa !12
  %254 = sext i32 %253 to i64
  %255 = getelementptr inbounds [10 x ptr], ptr %252, i64 %254
  %256 = load i32, ptr %32, align 4, !tbaa !12
  %257 = sext i32 %256 to i64
  %258 = getelementptr inbounds [10 x ptr], ptr %255, i64 0, i64 %257
  %259 = load ptr, ptr %258, align 8, !tbaa !27
  %260 = load ptr, ptr %29, align 8, !tbaa !40
  %261 = load i32, ptr %31, align 4, !tbaa !12
  %262 = sext i32 %261 to i64
  %263 = getelementptr inbounds [10 x ptr], ptr %260, i64 %262
  %264 = load i32, ptr %32, align 4, !tbaa !12
  %265 = sext i32 %264 to i64
  %266 = getelementptr inbounds [10 x ptr], ptr %263, i64 0, i64 %265
  %267 = load ptr, ptr %266, align 8, !tbaa !29
  %268 = call i64 @SUNDlsMat_denseGETRF(ptr noundef %259, i64 noundef 2, i64 noundef 2, ptr noundef %267)
  store i64 %268, ptr %30, align 8, !tbaa !42
  %269 = load i64, ptr %30, align 8, !tbaa !42
  %270 = icmp ne i64 %269, 0
  br i1 %270, label %271, label %272

271:                                              ; preds = %243
  store i32 1, ptr %8, align 4
  store i32 1, ptr %37, align 4
  br label %281

272:                                              ; preds = %243
  br label %273

273:                                              ; preds = %272
  %274 = load i32, ptr %32, align 4, !tbaa !12
  %275 = add nsw i32 %274, 1
  store i32 %275, ptr %32, align 4, !tbaa !12
  br label %240

276:                                              ; preds = %240
  br label %277

277:                                              ; preds = %276
  %278 = load i32, ptr %31, align 4, !tbaa !12
  %279 = add nsw i32 %278, 1
  store i32 %279, ptr %31, align 4, !tbaa !12
  br label %236

280:                                              ; preds = %236
  store i32 0, ptr %8, align 4
  store i32 1, ptr %37, align 4
  br label %281

281:                                              ; preds = %280, %271
  call void @llvm.lifetime.end.p0(i64 8, ptr %36) #6
  call void @llvm.lifetime.end.p0(i64 8, ptr %35) #6
  call void @llvm.lifetime.end.p0(i64 8, ptr %34) #6
  call void @llvm.lifetime.end.p0(i64 8, ptr %33) #6
  call void @llvm.lifetime.end.p0(i64 4, ptr %32) #6
  call void @llvm.lifetime.end.p0(i64 4, ptr %31) #6
  call void @llvm.lifetime.end.p0(i64 8, ptr %30) #6
  call void @llvm.lifetime.end.p0(i64 8, ptr %29) #6
  call void @llvm.lifetime.end.p0(i64 8, ptr %28) #6
  call void @llvm.lifetime.end.p0(i64 8, ptr %27) #6
  call void @llvm.lifetime.end.p0(i64 8, ptr %26) #6
  call void @llvm.lifetime.end.p0(i64 8, ptr %25) #6
  call void @llvm.lifetime.end.p0(i64 8, ptr %24) #6
  call void @llvm.lifetime.end.p0(i64 8, ptr %23) #6
  call void @llvm.lifetime.end.p0(i64 8, ptr %22) #6
  call void @llvm.lifetime.end.p0(i64 8, ptr %21) #6
  call void @llvm.lifetime.end.p0(i64 8, ptr %20) #6
  call void @llvm.lifetime.end.p0(i64 8, ptr %19) #6
  call void @llvm.lifetime.end.p0(i64 8, ptr %18) #6
  call void @llvm.lifetime.end.p0(i64 8, ptr %17) #6
  call void @llvm.lifetime.end.p0(i64 8, ptr %16) #6
  %282 = load i32, ptr %8, align 4
  ret i32 %282
}