; Function Attrs: nounwind uwtable
define internal range(i32 0, 2) i32 @Precond(double %0, ptr noundef %1, ptr readnone captures(none) %2, i32 noundef %3, ptr noundef writeonly captures(none) %4, double noundef %5, ptr noundef readonly captures(none) %6) #0 {
  %8 = getelementptr inbounds nuw i8, ptr %6, i64 800
  %9 = getelementptr inbounds nuw i8, ptr %6, i64 1600
  %10 = tail call ptr @N_VGetArrayPointer(ptr noundef %1) #9
  %.not = icmp eq i32 %3, 0
  br i1 %.not, label %17, label %.preheader95

.preheader95:                                     ; preds = %7, %16
  %indvars.iv109 = phi i64 [ %indvars.iv.next110, %16 ], [ 0, %7 ]
  br label %11

11:                                               ; preds = %.preheader95, %11
  %indvars.iv = phi i64 [ 0, %.preheader95 ], [ %indvars.iv.next, %11 ]
  %12 = getelementptr inbounds nuw [10 x ptr], ptr %8, i64 %indvars.iv, i64 %indvars.iv109
  %13 = load ptr, ptr %12, align 8, !tbaa !11
  %14 = getelementptr inbounds nuw [10 x ptr], ptr %6, i64 %indvars.iv, i64 %indvars.iv109
  %15 = load ptr, ptr %14, align 8, !tbaa !11
  tail call void @SUNDlsMat_denseCopy(ptr noundef %13, ptr noundef %15, i64 noundef 2, i64 noundef 2) #9
  %indvars.iv.next = add nuw nsw i64 %indvars.iv, 1
  %exitcond.not = icmp eq i64 %indvars.iv.next, 10
  br i1 %exitcond.not, label %16, label %11

16:                                               ; preds = %11
  %indvars.iv.next110 = add nuw nsw i64 %indvars.iv109, 1
  %exitcond112.not = icmp eq i64 %indvars.iv.next110, 10
  br i1 %exitcond112.not, label %.loopexit94, label %.preheader95

17:                                               ; preds = %7
  %18 = getelementptr inbounds nuw i8, ptr %6, i64 2400
  %19 = load double, ptr %18, align 8, !tbaa !27
  %20 = getelementptr inbounds nuw i8, ptr %6, i64 2424
  %21 = load double, ptr %20, align 8, !tbaa !19
  %22 = getelementptr inbounds nuw i8, ptr %6, i64 2448
  %23 = load double, ptr %22, align 8, !tbaa !22
  %24 = getelementptr inbounds nuw i8, ptr %6, i64 2432
  %25 = load double, ptr %24, align 8, !tbaa !20
  %26 = fneg double %19
  br label %27

27:                                               ; preds = %17, %64
  %indvars.iv117 = phi i64 [ 0, %17 ], [ %indvars.iv.next118, %64 ]
  %28 = trunc nuw nsw i64 %indvars.iv117 to i32
  %29 = uitofp nneg i32 %28 to double
  %30 = fadd double %29, -5.000000e-01
  %31 = tail call double @llvm.fmuladd.f64(double %30, double %21, double 3.000000e+01)
  %32 = fadd double %21, %31
  %33 = fmul double %31, 2.000000e-01
  %34 = tail call double @exp(double noundef %33) #9, !tbaa !25
  %35 = fmul double %23, %34
  %36 = fmul double %32, 2.000000e-01
  %37 = tail call double @exp(double noundef %36) #9, !tbaa !25
  %38 = fmul double %23, %37
  %39 = fadd double %35, %38
  %40 = tail call double @llvm.fmuladd.f64(double %25, double 2.000000e+00, double %39)
  %41 = mul nuw nsw i64 %indvars.iv117, 20
  %42 = or disjoint i64 %41, 1
  %invariant.gep = getelementptr inbounds nuw double, ptr %10, i64 %41
  %43 = getelementptr inbounds nuw double, ptr %10, i64 %42
  br label %44

44:                                               ; preds = %27, %44
  %indvars.iv113 = phi i64 [ 0, %27 ], [ %indvars.iv.next114, %44 ]
  %45 = shl nuw nsw i64 %indvars.iv113, 1
  %gep = getelementptr inbounds nuw double, ptr %invariant.gep, i64 %45
  %46 = load double, ptr %gep, align 8, !tbaa !23
  %47 = getelementptr inbounds nuw double, ptr %43, i64 %45
  %48 = load double, ptr %47, align 8, !tbaa !23
  %49 = getelementptr inbounds nuw [10 x ptr], ptr %8, i64 %indvars.iv113, i64 %indvars.iv117
  %50 = load ptr, ptr %49, align 8, !tbaa !11
  %51 = getelementptr inbounds nuw [10 x ptr], ptr %6, i64 %indvars.iv113, i64 %indvars.iv117
  %52 = load ptr, ptr %51, align 8, !tbaa !11
  %53 = tail call double @llvm.fmuladd.f64(double %48, double -4.660000e-16, double 0xC0181FBE76C8B43A)
  %54 = fsub double %53, %40
  %55 = load ptr, ptr %50, align 8, !tbaa !28
  store double %54, ptr %55, align 8, !tbaa !23
  %56 = tail call double @llvm.fmuladd.f64(double %46, double -4.660000e-16, double %19)
  %57 = getelementptr inbounds nuw i8, ptr %50, i64 8
  %58 = load ptr, ptr %57, align 8, !tbaa !28
  store double %56, ptr %58, align 8, !tbaa !23
  %59 = tail call double @llvm.fmuladd.f64(double %48, double -4.660000e-16, double 0x40181FBE76C8B43A)
  %60 = getelementptr inbounds nuw i8, ptr %55, i64 8
  store double %59, ptr %60, align 8, !tbaa !23
  %61 = tail call double @llvm.fmuladd.f64(double %46, double -4.660000e-16, double %26)
  %62 = fsub double %61, %40
  %63 = getelementptr inbounds nuw i8, ptr %58, i64 8
  store double %62, ptr %63, align 8, !tbaa !23
  tail call void @SUNDlsMat_denseCopy(ptr noundef nonnull %50, ptr noundef %52, i64 noundef 2, i64 noundef 2) #9
  %indvars.iv.next114 = add nuw nsw i64 %indvars.iv113, 1
  %exitcond116.not = icmp eq i64 %indvars.iv.next114, 10
  br i1 %exitcond116.not, label %64, label %44

64:                                               ; preds = %44
  %indvars.iv.next118 = add nuw nsw i64 %indvars.iv117, 1
  %exitcond120.not = icmp eq i64 %indvars.iv.next118, 10
  br i1 %exitcond120.not, label %.loopexit94, label %27

.loopexit94:                                      ; preds = %16, %64
  %storemerge = phi i32 [ 1, %64 ], [ 0, %16 ]
  store i32 %storemerge, ptr %4, align 4, !tbaa !25
  %65 = fneg double %5
  br label %.preheader93

.preheader93:                                     ; preds = %.loopexit94, %69
  %indvars.iv125 = phi i64 [ 0, %.loopexit94 ], [ %indvars.iv.next126, %69 ]
  br label %66

66:                                               ; preds = %.preheader93, %66
  %indvars.iv121 = phi i64 [ 0, %.preheader93 ], [ %indvars.iv.next122, %66 ]
  %67 = getelementptr inbounds nuw [10 x ptr], ptr %6, i64 %indvars.iv121, i64 %indvars.iv125
  %68 = load ptr, ptr %67, align 8, !tbaa !11
  tail call void @SUNDlsMat_denseScale(double noundef %65, ptr noundef %68, i64 noundef 2, i64 noundef 2) #9
  %indvars.iv.next122 = add nuw nsw i64 %indvars.iv121, 1
  %exitcond124.not = icmp eq i64 %indvars.iv.next122, 10
  br i1 %exitcond124.not, label %69, label %66

69:                                               ; preds = %66
  %indvars.iv.next126 = add nuw nsw i64 %indvars.iv125, 1
  %exitcond128.not = icmp eq i64 %indvars.iv.next126, 10
  br i1 %exitcond128.not, label %.preheader, label %.preheader93

.preheader:                                       ; preds = %69, %78
  %indvars.iv133 = phi i64 [ %indvars.iv.next134, %78 ], [ 0, %69 ]
  br label %71

70:                                               ; preds = %71
  %indvars.iv.next130 = add nuw nsw i64 %indvars.iv129, 1
  %exitcond132.not = icmp eq i64 %indvars.iv.next130, 10
  br i1 %exitcond132.not, label %78, label %71

71:                                               ; preds = %.preheader, %70
  %indvars.iv129 = phi i64 [ 0, %.preheader ], [ %indvars.iv.next130, %70 ]
  %72 = getelementptr inbounds nuw [10 x ptr], ptr %6, i64 %indvars.iv133, i64 %indvars.iv129
  %73 = load ptr, ptr %72, align 8, !tbaa !11
  tail call void @SUNDlsMat_denseAddIdentity(ptr noundef %73, i64 noundef 2) #9
  %74 = load ptr, ptr %72, align 8, !tbaa !11
  %75 = getelementptr inbounds nuw [10 x ptr], ptr %9, i64 %indvars.iv133, i64 %indvars.iv129
  %76 = load ptr, ptr %75, align 8, !tbaa !13
  %77 = tail call i64 @SUNDlsMat_denseGETRF(ptr noundef %74, i64 noundef 2, i64 noundef 2, ptr noundef %76) #9
  %.not90 = icmp eq i64 %77, 0
  br i1 %.not90, label %70, label %.loopexit

78:                                               ; preds = %70
  %indvars.iv.next134 = add nuw nsw i64 %indvars.iv133, 1
  %exitcond136.not = icmp eq i64 %indvars.iv.next134, 10
  br i1 %exitcond136.not, label %.loopexit, label %.preheader

.loopexit:                                        ; preds = %78, %71
  %.0 = phi i32 [ 1, %71 ], [ 0, %78 ]
  ret i32 %.0
}